(dp0
S'/Users/fish/Praxa/TESSAR/etc/ipython/__init__.py'
p1
S'd41d8cd98f00b204e9800998ecf8427e'
p2
sS'/Users/fish/Praxa/TESSAR/etc/ipython/ipy_user_conf$py.class'
p3
S'822d3198fd27b7930dcd5412d5a72fe3'
p4
sS'/Users/fish/Praxa/TESSAR/etc/ipython/__init__$py.class'
p5
S'c841d032d6db647bb3aa6e6a94e78f22'
p6
sS'/Users/fish/Praxa/TESSAR/etc/ipython/ipy_user_conf.py'
p7
S'fc108bedff4b9a00f91fa0a5999140d3'
p8
s.